target datalayout = "e-m:e-p270:32:32-p271:32:32-p272:64:64-i64:64-i128:128-f80:128-n8:16:32:64-S128"
target triple = "x86_64-pc-linux-gnu"

%struct.stat = type { i64, i64, i64, i32, i32, i32, i32, i64, i64, i64, i64, %struct.timespec, %struct.timespec, %struct.timespec, [3 x i64] }
%struct.timespec = type { i64, i64 }
%struct.dirent = type { i64, i64, i16, i8, [256 x i8] }

@.str.4 = private unnamed_addr constant [29 x i8] c"could not stat file \22%s\22: %m\00", align 1

; Function Attrs: nounwind uwtable
define i32 @get_dirent_type(ptr noundef %0, ptr noundef %1, i1 noundef zeroext %2, i32 noundef %3) #0 {
  %5 = alloca ptr, align 8
  %6 = alloca ptr, align 8
  %7 = alloca i8, align 1
  %8 = alloca i32, align 4
  %9 = alloca i32, align 4
  %10 = alloca %struct.stat, align 8
  %11 = alloca i32, align 4
  store ptr %0, ptr %5, align 8
  store ptr %1, ptr %6, align 8
  %12 = zext i1 %2 to i8
  store i8 %12, ptr %7, align 1
  store i32 %3, ptr %8, align 4
  call void @llvm.lifetime.start.p0(i64 4, ptr %9) #9
  %13 = load ptr, ptr %6, align 8
  %14 = getelementptr inbounds nuw %struct.dirent, ptr %13, i32 0, i32 3
  %15 = load i8, ptr %14, align 2
  %16 = zext i8 %15 to i32
  %17 = icmp eq i32 %16, 8
  br i1 %17, label %18, label %19

18:                                               ; preds = %4
  store i32 2, ptr %9, align 4
  br label %39

19:                                               ; preds = %4
  %20 = load ptr, ptr %6, align 8
  %21 = getelementptr inbounds nuw %struct.dirent, ptr %20, i32 0, i32 3
  %22 = load i8, ptr %21, align 2
  %23 = zext i8 %22 to i32
  %24 = icmp eq i32 %23, 4
  br i1 %24, label %25, label %26

25:                                               ; preds = %19
  store i32 3, ptr %9, align 4
  br label %38

26:                                               ; preds = %19
  %27 = load ptr, ptr %6, align 8
  %28 = getelementptr inbounds nuw %struct.dirent, ptr %27, i32 0, i32 3
  %29 = load i8, ptr %28, align 2
  %30 = zext i8 %29 to i32
  %31 = icmp eq i32 %30, 10
  br i1 %31, label %32, label %36

32:                                               ; preds = %26
  %33 = load i8, ptr %7, align 1, !range !5, !noundef !6
  %34 = trunc i8 %33 to i1
  br i1 %34, label %36, label %35

35:                                               ; preds = %32
  store i32 4, ptr %9, align 4
  br label %37

36:                                               ; preds = %32, %26
  store i32 1, ptr %9, align 4
  br label %37

37:                                               ; preds = %36, %35
  br label %38

38:                                               ; preds = %37, %25
  br label %39

39:                                               ; preds = %38, %18
  %40 = load i32, ptr %9, align 4
  %41 = icmp eq i32 %40, 1
  br i1 %41, label %42, label %79

42:                                               ; preds = %39
  call void @llvm.lifetime.start.p0(i64 144, ptr %10) #9
  call void @llvm.lifetime.start.p0(i64 4, ptr %11) #9
  %43 = load i8, ptr %7, align 1, !range !5, !noundef !6
  %44 = trunc i8 %43 to i1
  br i1 %44, label %45, label %48

45:                                               ; preds = %42
  %46 = load ptr, ptr %5, align 8
  %47 = call i32 @stat(ptr noundef %46, ptr noundef %10) #9
  store i32 %47, ptr %11, align 4
  br label %51

48:                                               ; preds = %42
  %49 = load ptr, ptr %5, align 8
  %50 = call i32 @lstat(ptr noundef %49, ptr noundef %10) #9
  store i32 %50, ptr %11, align 4
  br label %51

51:                                               ; preds = %48, %45
  %52 = load i32, ptr %11, align 4
  %53 = icmp slt i32 %52, 0
  br i1 %53, label %54, label %57

54:                                               ; preds = %51
  store i32 0, ptr %9, align 4
  %55 = load i32, ptr %8, align 4
  %56 = load ptr, ptr %5, align 8
  call void (i32, i32, ptr, ...) @pg_log_generic(i32 noundef %55, i32 noundef 0, ptr noundef @.str.4, ptr noundef %56)
  br label %78

57:                                               ; preds = %51
  %58 = getelementptr inbounds nuw %struct.stat, ptr %10, i32 0, i32 3
  %59 = load i32, ptr %58, align 8
  %60 = and i32 %59, 61440
  %61 = icmp eq i32 %60, 32768
  br i1 %61, label %62, label %63

62:                                               ; preds = %57
  store i32 2, ptr %9, align 4
  br label %77

63:                                               ; preds = %57
  %64 = getelementptr inbounds nuw %struct.stat, ptr %10, i32 0, i32 3
  %65 = load i32, ptr %64, align 8
  %66 = and i32 %65, 61440
  %67 = icmp eq i32 %66, 16384
  br i1 %67, label %68, label %69

68:                                               ; preds = %63
  store i32 3, ptr %9, align 4
  br label %76

69:                                               ; preds = %63
  %70 = getelementptr inbounds nuw %struct.stat, ptr %10, i32 0, i32 3
  %71 = load i32, ptr %70, align 8
  %72 = and i32 %71, 61440
  %73 = icmp eq i32 %72, 40960
  br i1 %73, label %74, label %75

74:                                               ; preds = %69
  store i32 4, ptr %9, align 4
  br label %75

75:                                               ; preds = %74, %69
  br label %76

76:                                               ; preds = %75, %68
  br label %77

77:                                               ; preds = %76, %62
  br label %78

78:                                               ; preds = %77, %54
  call void @llvm.lifetime.end.p0(i64 4, ptr %11) #9
  call void @llvm.lifetime.end.p0(i64 144, ptr %10) #9
  br label %79

79:                                               ; preds = %78, %39
  %80 = load i32, ptr %9, align 4
  call void @llvm.lifetime.end.p0(i64 4, ptr %9) #9
  ret i32 %80
}