; Function Attrs: nounwind uwtable
define range(i32 0, 5) i32 @get_dirent_type(ptr noundef %0, ptr noundef readonly captures(none) %1, i1 noundef zeroext %2, i32 noundef %3) local_unnamed_addr #0 {
  %5 = alloca %struct.stat, align 8
  %6 = getelementptr inbounds nuw i8, ptr %1, i64 18
  %7 = load i8, ptr %6, align 2
  switch i8 %7, label %10 [
    i8 8, label %.thread
    i8 4, label %8
    i8 10, label %9
  ]

8:                                                ; preds = %4
  br label %.thread

9:                                                ; preds = %4
  br i1 %2, label %.thread15, label %.thread

.thread15:                                        ; preds = %9
  call void @llvm.lifetime.start.p0(i64 144, ptr nonnull %5) #11
  br label %11

10:                                               ; preds = %4
  call void @llvm.lifetime.start.p0(i64 144, ptr nonnull %5) #11
  br i1 %2, label %11, label %13

11:                                               ; preds = %.thread15, %10
  %12 = call i32 @stat(ptr noundef %0, ptr noundef nonnull %5) #11
  br label %15

13:                                               ; preds = %10
  %14 = call i32 @lstat(ptr noundef %0, ptr noundef nonnull %5) #11
  br label %15

15:                                               ; preds = %13, %11
  %.0 = phi i32 [ %12, %11 ], [ %14, %13 ]
  %16 = icmp slt i32 %.0, 0
  br i1 %16, label %17, label %18

17:                                               ; preds = %15
  tail call void (i32, i32, ptr, ...) @pg_log_generic(i32 noundef %3, i32 noundef 0, ptr noundef nonnull @.str.4, ptr noundef %0) #11
  br label %24

18:                                               ; preds = %15
  %19 = getelementptr inbounds nuw i8, ptr %5, i64 24
  %20 = load i32, ptr %19, align 8
  %21 = trunc i32 %20 to i16
  %trunc = and i16 %21, -4096
  switch i16 %trunc, label %.fold.split [
    i16 -32768, label %24
    i16 16384, label %22
    i16 -24576, label %23
  ]

22:                                               ; preds = %18
  br label %24

23:                                               ; preds = %18
  br label %24

.fold.split:                                      ; preds = %18
  br label %24

24:                                               ; preds = %18, %.fold.split, %23, %22, %17
  %.2 = phi i32 [ 0, %17 ], [ 3, %22 ], [ 4, %23 ], [ 2, %18 ], [ 1, %.fold.split ]
  call void @llvm.lifetime.end.p0(i64 144, ptr nonnull %5) #11
  br label %.thread

.thread:                                          ; preds = %9, %4, %8, %24
  %.1 = phi i32 [ %.2, %24 ], [ 4, %9 ], [ 2, %4 ], [ 3, %8 ]
  ret i32 %.1
}